LIBRARY bacula_cats.dll
EXPORTS

; bdb.c:
; mysql.c:
; postgresql.c:
; sqlite.c:
?db_get_type@@YAPBDXZ
?db_sql_query@@YAHPAUB_DB@@PBDP6AHPAXHPAPAD@Z2@Z
?db_escape_string@@YAXPAD0H@Z
?db_init_database@@YAPAUB_DB@@PAVJCR@@PBD111H1H@Z
?db_open_database@@YAHPAVJCR@@PAUB_DB@@@Z
?db_close_database@@YAXPAVJCR@@PAUB_DB@@@Z

; sql.c:
?_db_unlock@@YAXPBDHPAUB_DB@@@Z
?db_strerror@@YAPADPAUB_DB@@@Z
?db_int64_handler@@YAHPAXHPAPAD@Z
?db_end_transaction@@YAXPAVJCR@@PAUB_DB@@@Z
?db_start_transaction@@YAXPAVJCR@@PAUB_DB@@@Z
?_db_lock@@YAXPBDHPAUB_DB@@@Z

; sql_cmds.c
?list_pool@@3PBDB DATA
?client_backups@@3PBDB DATA
?del_File@@3PBDB DATA
?upd_Purged@@3PBDB DATA
?cnt_DelCand@@3PBDB DATA
?del_Job@@3PBDB DATA
?del_JobMedia@@3PBDB DATA
?cnt_JobMedia@@3PBDB DATA
?sel_JobMedia@@3PBDB DATA
?select_job@@3PBDB DATA
?drop_deltabs@@3PAPBDA DATA
?create_deltabs@@3PAPBDA DATA
?insert_delcand@@3PBDB DATA
?select_backup_del@@3PBDB DATA
?select_verify_del@@3PBDB DATA
?select_restore_del@@3PBDB DATA
?select_admin_del@@3PBDB DATA
?select_migrate_del@@3PBDB DATA
?uar_count_files@@3PBDB DATA
?uar_list_jobs@@3PBDB DATA
?uar_file@@3PBDB DATA
?uar_sel_files@@3PBDB DATA
?uar_del_temp@@3PBDB DATA
?uar_del_temp1@@3PBDB DATA
?uar_create_temp@@3PBDB DATA
?uar_create_temp1@@3PBDB DATA
?uar_last_full@@3PBDB DATA
?uar_full@@3PBDB DATA
?uar_dif@@3PBDB DATA
?uar_inc@@3PBDB DATA
?uar_list_temp@@3PBDB DATA
?uar_sel_jobid_temp@@3PBDB DATA
?uar_sel_all_temp1@@3PBDB DATA
?uar_sel_all_temp@@3PBDB DATA
?uar_sel_fileset@@3PBDB DATA
?uar_mediatype@@3PBDB DATA
?uar_jobid_fileindex@@3PBDB DATA
?uar_jobids_fileindex@@3PBDB DATA
?uar_jobid_fileindex_from_dir@@3PBDB DATA
?uar_jobid_fileindex_from_table@@3PBDB DATA

; bdb_create.c:
; sql_create.c:
?db_create_job_record@@YA_NPAVJCR@@PAUB_DB@@PAUJOB_DBR@@@Z
?db_create_jobmedia_record@@YA_NPAVJCR@@PAUB_DB@@PAUJOBMEDIA_DBR@@@Z
?db_create_pool_record@@YA_NPAVJCR@@PAUB_DB@@PAUPOOL_DBR@@@Z
?db_create_storage_record@@YA_NPAVJCR@@PAUB_DB@@PAVSTORAGE_DBR@@@Z
?db_create_mediatype_record@@YA_NPAVJCR@@PAUB_DB@@PAVMEDIATYPE_DBR@@@Z
?db_create_media_record@@YAHPAVJCR@@PAUB_DB@@PAUMEDIA_DBR@@@Z
?db_create_client_record@@YAHPAVJCR@@PAUB_DB@@PAUCLIENT_DBR@@@Z
?db_create_counter_record@@YAHPAVJCR@@PAUB_DB@@PAUCOUNTER_DBR@@@Z
?db_create_fileset_record@@YA_NPAVJCR@@PAUB_DB@@PAUFILESET_DBR@@@Z
?db_create_file_attributes_record@@YAHPAVJCR@@PAUB_DB@@PAUATTR_DBR@@@Z

; bdb_delete.c:
; sql_delete.c:
?db_delete_pool_record@@YAHPAVJCR@@PAUB_DB@@PAUPOOL_DBR@@@Z
?db_delete_media_record@@YAHPAVJCR@@PAUB_DB@@PAUMEDIA_DBR@@@Z

; bdb_find.c:
; sql_find.c:
?db_find_job_start_time@@YA_NPAVJCR@@PAUB_DB@@PAUJOB_DBR@@PAPAD@Z
?db_find_failed_job_since@@YA_NPAVJCR@@PAUB_DB@@PAUJOB_DBR@@PADAAH@Z
?db_find_last_jobid@@YA_NPAVJCR@@PAUB_DB@@PBDPAUJOB_DBR@@@Z
?db_find_next_volume@@YAHPAVJCR@@PAUB_DB@@H_NPAUMEDIA_DBR@@@Z

; bdb_get.c:
; sql_get.c:
?db_get_file_attributes_record@@YAHPAVJCR@@PAUB_DB@@PADPAUJOB_DBR@@PAUFILE_DBR@@@Z
?db_get_job_record@@YA_NPAVJCR@@PAUB_DB@@PAUJOB_DBR@@@Z
?db_get_job_volume_names@@YAHPAVJCR@@PAUB_DB@@IPAPAD@Z
?db_get_job_volume_parameters@@YAHPAVJCR@@PAUB_DB@@IPAPAUVOL_PARAMS@@@Z
?db_get_pool_ids@@YAHPAVJCR@@PAUB_DB@@PAHPAPAI@Z
?db_get_client_ids@@YAHPAVJCR@@PAUB_DB@@PAHPAPAI@Z
?db_get_pool_record@@YA_NPAVJCR@@PAUB_DB@@PAUPOOL_DBR@@@Z
?db_get_client_record@@YAHPAVJCR@@PAUB_DB@@PAUCLIENT_DBR@@@Z
?db_get_fileset_record@@YAHPAVJCR@@PAUB_DB@@PAUFILESET_DBR@@@Z
?db_get_media_ids@@YA_NPAVJCR@@PAUB_DB@@IPAHPAPAI@Z
?db_get_media_record@@YA_NPAVJCR@@PAUB_DB@@PAUMEDIA_DBR@@@Z

; bdb_list.c:
; sql_list.c:
?db_list_sql_query@@YAHPAVJCR@@PAUB_DB@@PBDP6AXPAX2@Z3HW4e_list_type@@@Z
?db_list_pool_records@@YAXPAVJCR@@PAUB_DB@@PAUPOOL_DBR@@P6AXPAXPBD@Z3W4e_list_type@@@Z
?db_list_client_records@@YAXPAVJCR@@PAUB_DB@@P6AXPAXPBD@Z2W4e_list_type@@@Z
?db_list_media_records@@YAXPAVJCR@@PAUB_DB@@PAUMEDIA_DBR@@P6AXPAXPBD@Z3W4e_list_type@@@Z
?db_list_jobmedia_records@@YAXPAVJCR@@PAUB_DB@@IP6AXPAXPBD@Z2W4e_list_type@@@Z
?db_list_job_records@@YAXPAVJCR@@PAUB_DB@@PAUJOB_DBR@@P6AXPAXPBD@Z3W4e_list_type@@@Z
?db_list_job_totals@@YAXPAVJCR@@PAUB_DB@@PAUJOB_DBR@@P6AXPAXPBD@Z3@Z
?db_list_files_for_job@@YAXPAVJCR@@PAUB_DB@@IP6AXPAXPBD@Z2@Z

; bdb_update.c:
; sql_update.c:
?db_add_digest_to_file_record@@YAHPAVJCR@@PAUB_DB@@IPADH@Z
?db_mark_file_record@@YAHPAVJCR@@PAUB_DB@@II@Z
?db_update_job_start_record@@YA_NPAVJCR@@PAUB_DB@@PAUJOB_DBR@@@Z
?db_update_job_end_record@@YAHPAVJCR@@PAUB_DB@@PAUJOB_DBR@@@Z
?db_update_client_record@@YAHPAVJCR@@PAUB_DB@@PAUCLIENT_DBR@@@Z
?db_update_counter_record@@YAHPAVJCR@@PAUB_DB@@PAUCOUNTER_DBR@@@Z
?db_update_pool_record@@YAHPAVJCR@@PAUB_DB@@PAUPOOL_DBR@@@Z
?db_update_storage_record@@YA_NPAVJCR@@PAUB_DB@@PAVSTORAGE_DBR@@@Z
?db_update_media_record@@YAHPAVJCR@@PAUB_DB@@PAUMEDIA_DBR@@@Z
?db_update_media_defaults@@YAHPAVJCR@@PAUB_DB@@PAUMEDIA_DBR@@@Z
?db_make_inchanger_unique@@YAXPAVJCR@@PAUB_DB@@PAUMEDIA_DBR@@@Z
